; Function Attrs: mustprogress uwtable
define noundef double @_ZNK6casadi8External14get_default_inEx(ptr noundef nonnull readonly align 8 captures(none) dereferenceable(1520) %0, i64 noundef %1) unnamed_addr #3 align 2 {
  %3 = getelementptr inbounds nuw i8, ptr %0, i64 1376
  %4 = load ptr, ptr %3, align 8, !tbaa !141
  %.not = icmp eq ptr %4, null
  br i1 %.not, label %7, label %5

5:                                                ; preds = %2
  %6 = tail call noundef double %4(i64 noundef %1)
  br label %7

7:                                                ; preds = %2, %5
  %.0 = phi double [ %6, %5 ], [ 0.000000e+00, %2 ]
  ret double %.0
}